target datalayout = "e-m:e-p270:32:32-p271:32:32-p272:64:64-i64:64-i128:128-f80:128-n8:16:32:64-S128"
target triple = "x86_64-pc-linux-gnu"

%struct.decContext = type { i32, i32, i32, i32, i32, i32, i8 }

; Function Attrs: mustprogress nounwind uwtable
define ptr @uprv_decContextRestoreStatus_77(ptr noundef %0, i32 noundef %1, i32 noundef %2) #0 {
  %4 = alloca ptr, align 8
  %5 = alloca i32, align 4
  %6 = alloca i32, align 4
  store ptr %0, ptr %4, align 8, !tbaa !3
  store i32 %1, ptr %5, align 4, !tbaa !7
  store i32 %2, ptr %6, align 4, !tbaa !7
  %7 = load i32, ptr %6, align 4, !tbaa !7
  %8 = xor i32 %7, -1
  %9 = load ptr, ptr %4, align 8, !tbaa !3
  %10 = getelementptr inbounds nuw %struct.decContext, ptr %9, i32 0, i32 5
  %11 = load i32, ptr %10, align 4, !tbaa !9
  %12 = and i32 %11, %8
  store i32 %12, ptr %10, align 4, !tbaa !9
  %13 = load i32, ptr %6, align 4, !tbaa !7
  %14 = load i32, ptr %5, align 4, !tbaa !7
  %15 = and i32 %13, %14
  %16 = load ptr, ptr %4, align 8, !tbaa !3
  %17 = getelementptr inbounds nuw %struct.decContext, ptr %16, i32 0, i32 5
  %18 = load i32, ptr %17, align 4, !tbaa !9
  %19 = or i32 %18, %15
  store i32 %19, ptr %17, align 4, !tbaa !9
  %20 = load ptr, ptr %4, align 8, !tbaa !3
  ret ptr %20
}