; Function Attrs: mustprogress nofree norecurse nosync nounwind willreturn memory(argmem: readwrite) uwtable
define noundef ptr @uprv_decContextRestoreStatus_77(ptr noundef returned %0, i32 noundef %1, i32 noundef %2) local_unnamed_addr #0 {
  %4 = xor i32 %2, -1
  %5 = getelementptr inbounds nuw i8, ptr %0, i64 20
  %6 = load i32, ptr %5, align 4, !tbaa !3
  %7 = and i32 %6, %4
  %8 = and i32 %2, %1
  %9 = or disjoint i32 %7, %8
  store i32 %9, ptr %5, align 4, !tbaa !3
  ret ptr %0
}